target datalayout = "e-m:e-p270:32:32-p271:32:32-p272:64:64-i64:64-i128:128-f80:128-n8:16:32:64-S128"
target triple = "x86_64-pc-linux-gnu"

%struct.FunctionCallInfoBaseData = type { ptr, ptr, ptr, i32, i8, i16, [0 x %struct.NullableDatum] }
%struct.NullableDatum = type { i64, i8 }
%struct.BackupState = type { [1025 x i8], i64, i32, i64, i64, i8, i64, i32, i64, i32, i64 }

@.str = private unnamed_addr constant [48 x i8] c"a backup is already in progress in this session\00", align 1
@.str.1 = private unnamed_addr constant [12 x i8] c"xlogfuncs.c\00", align 1
@__func__.pg_backup_start = private unnamed_addr constant [16 x i8] c"pg_backup_start\00", align 1
@backupcontext = internal global ptr null, align 8
@TopMemoryContext = external global ptr, align 8
@.str.2 = private unnamed_addr constant [23 x i8] c"on-line backup context\00", align 1
@backup_state = internal global ptr null, align 8
@tablespace_map = internal global ptr null, align 8
@CurrentMemoryContext = external global ptr, align 8

; Function Attrs: inlinehint nounwind uwtable
define internal i64 @Int64GetDatum(i64 noundef %0) #3 {
  %2 = alloca i64, align 8
  store i64 %0, ptr %2, align 8
  %3 = load i64, ptr %2, align 8
  ret i64 %3
}

; Function Attrs: inlinehint nounwind uwtable
define internal i64 @LSNGetDatum(i64 noundef %0) #3 {
  %2 = alloca i64, align 8
  store i64 %0, ptr %2, align 8
  %3 = load i64, ptr %2, align 8
  %4 = call i64 @Int64GetDatum(i64 noundef %3)
  ret i64 %4
}

; Function Attrs: inlinehint nounwind uwtable
define internal ptr @MemoryContextSwitchTo(ptr noundef %0) #3 {
  %2 = alloca ptr, align 8
  %3 = alloca ptr, align 8
  store ptr %0, ptr %2, align 8
  call void @llvm.lifetime.start.p0(i64 8, ptr %3) #9
  %4 = load ptr, ptr @CurrentMemoryContext, align 8
  store ptr %4, ptr %3, align 8
  %5 = load ptr, ptr %2, align 8
  store ptr %5, ptr @CurrentMemoryContext, align 8
  %6 = load ptr, ptr %3, align 8
  call void @llvm.lifetime.end.p0(i64 8, ptr %3) #9
  ret ptr %6
}

; Function Attrs: inlinehint nounwind uwtable
define internal zeroext i1 @DatumGetBool(i64 noundef %0) #3 {
  %2 = alloca i64, align 8
  store i64 %0, ptr %2, align 8
  %3 = load i64, ptr %2, align 8
  %4 = icmp ne i64 %3, 0
  ret i1 %4
}

; Function Attrs: inlinehint nounwind uwtable
define internal ptr @DatumGetPointer(i64 noundef %0) #3 {
  %2 = alloca i64, align 8
  store i64 %0, ptr %2, align 8
  %3 = load i64, ptr %2, align 8
  %4 = inttoptr i64 %3 to ptr
  ret ptr %4
}

; Function Attrs: nounwind uwtable
define dso_local i64 @pg_backup_start(ptr noundef %0) #0 {
  %2 = alloca ptr, align 8
  %3 = alloca ptr, align 8
  %4 = alloca i8, align 1
  %5 = alloca ptr, align 8
  %6 = alloca i32, align 4
  %7 = alloca ptr, align 8
  %8 = alloca i32, align 4
  store ptr %0, ptr %2, align 8
  call void @llvm.lifetime.start.p0(i64 8, ptr %3) #9
  %9 = load ptr, ptr %2, align 8
  %10 = getelementptr inbounds nuw %struct.FunctionCallInfoBaseData, ptr %9, i32 0, i32 6
  %11 = getelementptr inbounds [0 x %struct.NullableDatum], ptr %10, i64 0, i64 0
  %12 = getelementptr inbounds nuw %struct.NullableDatum, ptr %11, i32 0, i32 0
  %13 = load i64, ptr %12, align 8
  %14 = call ptr @DatumGetPointer(i64 noundef %13)
  %15 = call ptr @pg_detoast_datum_packed(ptr noundef %14)
  store ptr %15, ptr %3, align 8
  call void @llvm.lifetime.start.p0(i64 1, ptr %4) #9
  %16 = load ptr, ptr %2, align 8
  %17 = getelementptr inbounds nuw %struct.FunctionCallInfoBaseData, ptr %16, i32 0, i32 6
  %18 = getelementptr inbounds [0 x %struct.NullableDatum], ptr %17, i64 0, i64 1
  %19 = getelementptr inbounds nuw %struct.NullableDatum, ptr %18, i32 0, i32 0
  %20 = load i64, ptr %19, align 8
  %21 = call zeroext i1 @DatumGetBool(i64 noundef %20)
  %22 = zext i1 %21 to i8
  store i8 %22, ptr %4, align 1
  call void @llvm.lifetime.start.p0(i64 8, ptr %5) #9
  call void @llvm.lifetime.start.p0(i64 4, ptr %6) #9
  %23 = call i32 @get_backup_status()
  store i32 %23, ptr %6, align 4
  call void @llvm.lifetime.start.p0(i64 8, ptr %7) #9
  %24 = load ptr, ptr %3, align 8
  %25 = call ptr @text_to_cstring(ptr noundef %24)
  store ptr %25, ptr %5, align 8
  %26 = load i32, ptr %6, align 4
  %27 = icmp eq i32 %26, 1
  br i1 %27, label %28, label %40

28:                                               ; preds = %1
  br label %29

29:                                               ; preds = %28
  br i1 true, label %30, label %32

30:                                               ; preds = %29
  %31 = call zeroext i1 @errstart_cold(i32 noundef 21, ptr noundef null) #10
  br i1 %31, label %34, label %37

32:                                               ; preds = %29
  %33 = call zeroext i1 @errstart(i32 noundef 21, ptr noundef null)
  br i1 %33, label %34, label %37

34:                                               ; preds = %32, %30
  %35 = call i32 @errcode(i32 noundef 325)
  %36 = call i32 (ptr, ...) @errmsg(ptr noundef @.str)
  call void @errfinish(ptr noundef @.str.1, i32 noundef 70, ptr noundef @__func__.pg_backup_start)
  br label %37

37:                                               ; preds = %34, %32, %30
  unreachable

38:                                               ; No predecessors!
  br label %39

39:                                               ; preds = %38
  br label %40

40:                                               ; preds = %39, %1
  %41 = load ptr, ptr @backupcontext, align 8
  %42 = icmp eq ptr %41, null
  br i1 %42, label %43, label %49

43:                                               ; preds = %40
  br label %44

44:                                               ; preds = %43
  br label %45

45:                                               ; preds = %44
  br label %46

46:                                               ; preds = %45
  store i32 1, ptr %8, align 4
  %47 = load ptr, ptr @TopMemoryContext, align 8
  %48 = call ptr @AllocSetContextCreateInternal(ptr noundef %47, ptr noundef @.str.2, i64 noundef 0, i64 noundef 1024, i64 noundef 8388608)
  store ptr %48, ptr @backupcontext, align 8
  br label %51

49:                                               ; preds = %40
  store ptr null, ptr @backup_state, align 8
  store ptr null, ptr @tablespace_map, align 8
  %50 = load ptr, ptr @backupcontext, align 8
  call void @MemoryContextReset(ptr noundef %50)
  br label %51

51:                                               ; preds = %49, %46
  %52 = load ptr, ptr @backupcontext, align 8
  %53 = call ptr @MemoryContextSwitchTo(ptr noundef %52)
  store ptr %53, ptr %7, align 8
  %54 = call ptr @palloc0(i64 noundef 1112)
  store ptr %54, ptr @backup_state, align 8
  %55 = call ptr @makeStringInfo()
  store ptr %55, ptr @tablespace_map, align 8
  %56 = load ptr, ptr %7, align 8
  %57 = call ptr @MemoryContextSwitchTo(ptr noundef %56)
  call void @register_persistent_abort_backup_handler()
  %58 = load ptr, ptr %5, align 8
  %59 = load i8, ptr %4, align 1, !range !4, !noundef !5
  %60 = trunc i8 %59 to i1
  %61 = load ptr, ptr @backup_state, align 8
  %62 = load ptr, ptr @tablespace_map, align 8
  call void @do_pg_backup_start(ptr noundef %58, i1 noundef zeroext %60, ptr noundef null, ptr noundef %61, ptr noundef %62)
  %63 = load ptr, ptr @backup_state, align 8
  %64 = getelementptr inbounds nuw %struct.BackupState, ptr %63, i32 0, i32 1
  %65 = load i64, ptr %64, align 8
  %66 = call i64 @LSNGetDatum(i64 noundef %65)
  call void @llvm.lifetime.end.p0(i64 8, ptr %7) #9
  call void @llvm.lifetime.end.p0(i64 4, ptr %6) #9
  call void @llvm.lifetime.end.p0(i64 8, ptr %5) #9
  call void @llvm.lifetime.end.p0(i64 1, ptr %4) #9
  call void @llvm.lifetime.end.p0(i64 8, ptr %3) #9
  ret i64 %66
}