; Function Attrs: nounwind uwtable
define dso_local i64 @pg_backup_start(ptr noundef readonly captures(none) %0) local_unnamed_addr #0 {
  %2 = getelementptr inbounds nuw i8, ptr %0, i64 32
  %3 = load i64, ptr %2, align 8
  %4 = inttoptr i64 %3 to ptr
  %5 = tail call ptr @pg_detoast_datum_packed(ptr noundef %4) #9
  %6 = getelementptr inbounds nuw i8, ptr %0, i64 48
  %7 = load i64, ptr %6, align 8
  %8 = tail call i32 @get_backup_status() #9
  %9 = tail call ptr @text_to_cstring(ptr noundef %5) #9
  %10 = icmp eq i32 %8, 1
  br i1 %10, label %11, label %15

11:                                               ; preds = %1
  %12 = tail call zeroext i1 @errstart_cold(i32 noundef 21, ptr noundef null) #10
  tail call void @llvm.assume(i1 %12)
  %13 = tail call i32 @errcode(i32 noundef 325) #9
  %14 = tail call i32 (ptr, ...) @errmsg(ptr noundef nonnull @.str) #9
  tail call void @errfinish(ptr noundef nonnull @.str.1, i32 noundef 70, ptr noundef nonnull @__func__.pg_backup_start) #9
  unreachable

15:                                               ; preds = %1
  %16 = load ptr, ptr @backupcontext, align 8
  %17 = icmp eq ptr %16, null
  br i1 %17, label %18, label %21

18:                                               ; preds = %15
  %19 = load ptr, ptr @TopMemoryContext, align 8
  %20 = tail call ptr @AllocSetContextCreateInternal(ptr noundef %19, ptr noundef nonnull @.str.2, i64 noundef 0, i64 noundef 1024, i64 noundef 8388608) #9
  store ptr %20, ptr @backupcontext, align 8
  br label %22

21:                                               ; preds = %15
  store ptr null, ptr @backup_state, align 8
  store ptr null, ptr @tablespace_map, align 8
  tail call void @MemoryContextReset(ptr noundef nonnull %16) #9
  %.pre = load ptr, ptr @backupcontext, align 8
  br label %22

22:                                               ; preds = %21, %18
  %23 = phi ptr [ %.pre, %21 ], [ %20, %18 ]
  %24 = icmp ne i64 %7, 0
  %25 = load ptr, ptr @CurrentMemoryContext, align 8
  store ptr %23, ptr @CurrentMemoryContext, align 8
  %26 = tail call ptr @palloc0(i64 noundef 1112) #9
  store ptr %26, ptr @backup_state, align 8
  %27 = tail call ptr @makeStringInfo() #9
  store ptr %27, ptr @tablespace_map, align 8
  store ptr %25, ptr @CurrentMemoryContext, align 8
  tail call void @register_persistent_abort_backup_handler() #9
  %28 = load ptr, ptr @backup_state, align 8
  %29 = load ptr, ptr @tablespace_map, align 8
  tail call void @do_pg_backup_start(ptr noundef %9, i1 noundef zeroext %24, ptr noundef null, ptr noundef %28, ptr noundef %29) #9
  %30 = load ptr, ptr @backup_state, align 8
  %31 = getelementptr inbounds nuw i8, ptr %30, i64 1032
  %32 = load i64, ptr %31, align 8
  ret i64 %32
}